target datalayout = "e-m:e-p270:32:32-p271:32:32-p272:64:64-i64:64-i128:128-f80:128-n8:16:32:64-S128"
target triple = "x86_64-pc-linux-gnu"

; Function Attrs: nounwind uwtable
define internal i64 @format_octal_recursive(i64 noundef %0, ptr noundef %1, i32 noundef %2) #0 {
  %4 = alloca i64, align 8
  %5 = alloca i64, align 8
  %6 = alloca ptr, align 8
  %7 = alloca i32, align 4
  store i64 %0, ptr %5, align 8, !tbaa !39
  store ptr %1, ptr %6, align 8, !tbaa !33
  store i32 %2, ptr %7, align 4, !tbaa !11
  %8 = load i32, ptr %7, align 4, !tbaa !11
  %9 = icmp eq i32 %8, 0
  br i1 %9, label %10, label %12

10:                                               ; preds = %3
  %11 = load i64, ptr %5, align 8, !tbaa !39
  store i64 %11, ptr %4, align 8
  br label %28

12:                                               ; preds = %3
  %13 = load i64, ptr %5, align 8, !tbaa !39
  %14 = load ptr, ptr %6, align 8, !tbaa !33
  %15 = getelementptr inbounds i8, ptr %14, i64 1
  %16 = load i32, ptr %7, align 4, !tbaa !11
  %17 = sub nsw i32 %16, 1
  %18 = call i64 @format_octal_recursive(i64 noundef %13, ptr noundef %15, i32 noundef %17)
  store i64 %18, ptr %5, align 8, !tbaa !39
  %19 = load i64, ptr %5, align 8, !tbaa !39
  %20 = trunc i64 %19 to i8
  %21 = sext i8 %20 to i32
  %22 = and i32 %21, 7
  %23 = add nsw i32 48, %22
  %24 = trunc i32 %23 to i8
  %25 = load ptr, ptr %6, align 8, !tbaa !33
  store i8 %24, ptr %25, align 1, !tbaa !34
  %26 = load i64, ptr %5, align 8, !tbaa !39
  %27 = ashr i64 %26, 3
  store i64 %27, ptr %4, align 8
  br label %28

28:                                               ; preds = %12, %10
  %29 = load i64, ptr %4, align 8
  ret i64 %29
}